; Function Attrs: mustprogress uwtable
define void @_ZN7rocksdb19WriteBatchWithIndexC2EPKNS_10ComparatorEmbmm(ptr noundef nonnull writeonly align 8 captures(none) dereferenceable(16) initializes((0, 8)) %0, ptr noundef %1, i64 noundef %2, i1 noundef zeroext %3, i64 noundef %4, i64 noundef %5) unnamed_addr #4 align 2 personality ptr @__gxx_personality_v0 {
  store ptr getelementptr inbounds nuw inrange(-16, 296) (i8, ptr @_ZTVN7rocksdb19WriteBatchWithIndexE, i64 16), ptr %0, align 8, !tbaa !88
  %7 = tail call noalias noundef nonnull dereferenceable(2640) ptr @_Znwm(i64 noundef 2640) #27
  invoke void @_ZN7rocksdb19WriteBatchWithIndex3RepC2EPKNS_10ComparatorEmmbm(ptr noundef nonnull align 16 dereferenceable(2632) %7, ptr noundef %1, i64 noundef %2, i64 noundef %4, i1 noundef zeroext %3, i64 noundef %5)
          to label %8 unwind label %10

8:                                                ; preds = %6
  %9 = getelementptr inbounds nuw i8, ptr %0, i64 8
  store ptr %7, ptr %9, align 8, !tbaa !202
  ret void

10:                                               ; preds = %6
  %11 = landingpad { ptr, i32 }
          cleanup
  tail call void @_ZdlPvm(ptr noundef nonnull %7, i64 noundef 2640) #25
  resume { ptr, i32 } %11
}